target datalayout = "e-m:e-p270:32:32-p271:32:32-p272:64:64-i64:64-i128:128-f80:128-n8:16:32:64-S128"
target triple = "x86_64-pc-linux-gnu"

%struct.SDL_WindowData = type { ptr, ptr, ptr, ptr, ptr, ptr, ptr, %union.anon, i32, i32, i32, i32, ptr, ptr, ptr, ptr, ptr, ptr, ptr, ptr, ptr, ptr, ptr, ptr, ptr, ptr, %struct.SDL_AtomicInt, ptr, i32, ptr, double, ptr, i32, i32, i32, i32, %struct.anon.3, %struct.anon.4, %struct.anon.5, %struct.anon.6, %struct.anon.7, %struct.anon.8, %struct.anon.9, i32, i32, i32, i64, i32, i32, i8, i8, i8, i8, i8, i8, i8, i8, i8, i8, i8, i8, i8, i8, i32, %struct.wl_list }
%union.anon = type { %struct.anon }
%struct.anon = type { ptr, %union.anon.0, i8 }
%union.anon.0 = type { %struct.anon.2 }
%struct.anon.2 = type { ptr, ptr }
%struct.SDL_AtomicInt = type { i32 }
%struct.anon.3 = type { double, double }
%struct.anon.4 = type { i32, i32, i32, i32 }
%struct.anon.5 = type { i32, i32, i32, i32 }
%struct.anon.6 = type { i32, i32 }
%struct.anon.7 = type { i32, i32 }
%struct.anon.8 = type { i32, i32 }
%struct.anon.9 = type { i32, i32, i8 }
%struct.wl_list = type { ptr, ptr }
%struct.SDL_Window = type { i32, ptr, ptr, i32, i32, i32, i32, i32, i32, i32, i32, float, float, i32, i32, i64, i64, float, i8, i8, i32, i32, %struct.SDL_Rect, %struct.SDL_Rect, %struct.SDL_Rect, i8, i8, i8, %struct.SDL_DisplayMode, %struct.SDL_DisplayMode, %struct.SDL_HDROutputProperties, float, ptr, i8, i8, i8, i8, i8, i8, i8, i8, i8, i32, i32, i32, i32, %struct.SDL_Rect, i32, i8, %struct.SDL_Rect, i32, %struct.SDL_Rect, ptr, ptr, i32, float, i32, i32, ptr, ptr, ptr, ptr, ptr, ptr, ptr, ptr, ptr }
%struct.SDL_DisplayMode = type { i32, i32, i32, i32, float, float, i32, i32, ptr }
%struct.SDL_HDROutputProperties = type { float, float }
%struct.SDL_Rect = type { i32, i32, i32, i32 }
%struct.SDL_DisplayData = type { ptr, ptr, ptr, ptr, ptr, double, i32, i32, i32, i32, i32, i32, i32, i32, i32, i32, i32, i32, i8, i8, i8, %struct.SDL_HDROutputProperties, i32, %struct.SDL_VideoDisplay, i32, ptr }
%struct.SDL_VideoDisplay = type { i32, ptr, i32, i32, ptr, %struct.SDL_DisplayMode, ptr, i32, i32, float, %struct.SDL_HDROutputProperties, i8, ptr, ptr, i32, ptr }
%struct.SDL_VideoData = type { i8, ptr, i32, ptr, ptr, ptr, ptr, i32, %struct.anon.12, ptr, ptr, ptr, ptr, ptr, ptr, ptr, ptr, ptr, ptr, ptr, ptr, ptr, ptr, ptr, ptr, ptr, ptr, ptr, ptr, ptr, ptr, %struct.wl_list, ptr, ptr, ptr, ptr, i32, i32, i8, i8 }
%struct.anon.12 = type { ptr }

@WAYLAND_wl_display_roundtrip = external global ptr, align 8
@.str.17 = private unnamed_addr constant [32 x i8] c"That operation is not supported\00", align 1
@.str.18 = private unnamed_addr constant [42 x i8] c"wayland cannot position non-popup windows\00", align 1
@WAYLAND_wl_proxy_get_version = external global ptr, align 8

; Function Attrs: nounwind uwtable
define internal void @FlushPendingEvents(ptr noundef %0) #0 {
  %2 = alloca ptr, align 8
  %3 = alloca i8, align 1
  %4 = alloca i8, align 1
  store ptr %0, ptr %2, align 8
  call void @llvm.lifetime.start.p0(i64 1, ptr %3) #10
  %5 = load ptr, ptr %2, align 8
  %6 = getelementptr inbounds nuw %struct.SDL_Window, ptr %5, i32 0, i32 36
  %7 = load i8, ptr %6, align 1, !range !5, !noundef !6
  %8 = trunc i8 %7 to i1
  %9 = zext i1 %8 to i8
  store i8 %9, ptr %3, align 1
  call void @llvm.lifetime.start.p0(i64 1, ptr %4) #10
  %10 = load ptr, ptr %2, align 8
  %11 = getelementptr inbounds nuw %struct.SDL_Window, ptr %10, i32 0, i32 37
  %12 = load i8, ptr %11, align 4, !range !5, !noundef !6
  %13 = trunc i8 %12 to i1
  %14 = zext i1 %13 to i8
  store i8 %14, ptr %4, align 1
  br label %15

15:                                               ; preds = %31, %1
  %16 = load ptr, ptr %2, align 8
  %17 = getelementptr inbounds nuw %struct.SDL_Window, ptr %16, i32 0, i32 59
  %18 = load ptr, ptr %17, align 8
  %19 = getelementptr inbounds nuw %struct.SDL_WindowData, ptr %18, i32 0, i32 44
  %20 = load i32, ptr %19, align 8
  %21 = icmp ne i32 %20, 0
  br i1 %21, label %29, label %22

22:                                               ; preds = %15
  %23 = load ptr, ptr %2, align 8
  %24 = getelementptr inbounds nuw %struct.SDL_Window, ptr %23, i32 0, i32 59
  %25 = load ptr, ptr %24, align 8
  %26 = getelementptr inbounds nuw %struct.SDL_WindowData, ptr %25, i32 0, i32 45
  %27 = load i32, ptr %26, align 4
  %28 = icmp ne i32 %27, 0
  br label %29

29:                                               ; preds = %22, %15
  %30 = phi i1 [ true, %15 ], [ %28, %22 ]
  br i1 %30, label %31, label %41

31:                                               ; preds = %29
  %32 = load ptr, ptr @WAYLAND_wl_display_roundtrip, align 8
  %33 = load ptr, ptr %2, align 8
  %34 = getelementptr inbounds nuw %struct.SDL_Window, ptr %33, i32 0, i32 59
  %35 = load ptr, ptr %34, align 8
  %36 = getelementptr inbounds nuw %struct.SDL_WindowData, ptr %35, i32 0, i32 1
  %37 = load ptr, ptr %36, align 8
  %38 = getelementptr inbounds nuw %struct.SDL_VideoData, ptr %37, i32 0, i32 1
  %39 = load ptr, ptr %38, align 8
  %40 = call i32 %32(ptr noundef %39)
  br label %15, !llvm.loop !11

41:                                               ; preds = %29
  %42 = load i8, ptr %3, align 1, !range !5, !noundef !6
  %43 = trunc i8 %42 to i1
  %44 = load ptr, ptr %2, align 8
  %45 = getelementptr inbounds nuw %struct.SDL_Window, ptr %44, i32 0, i32 36
  %46 = zext i1 %43 to i8
  store i8 %46, ptr %45, align 1
  %47 = load i8, ptr %4, align 1, !range !5, !noundef !6
  %48 = trunc i8 %47 to i1
  %49 = load ptr, ptr %2, align 8
  %50 = getelementptr inbounds nuw %struct.SDL_Window, ptr %49, i32 0, i32 37
  %51 = zext i1 %48 to i8
  store i8 %51, ptr %50, align 4
  call void @llvm.lifetime.end.p0(i64 1, ptr %4) #10
  call void @llvm.lifetime.end.p0(i64 1, ptr %3) #10
  ret void
}

; Function Attrs: inlinehint nounwind uwtable
define internal i32 @xdg_popup_get_version(ptr noundef %0) #4 {
  %2 = alloca ptr, align 8
  store ptr %0, ptr %2, align 8
  %3 = load ptr, ptr @WAYLAND_wl_proxy_get_version, align 8
  %4 = load ptr, ptr %2, align 8
  %5 = call i32 %3(ptr noundef %4)
  ret i32 %5
}

; Function Attrs: nounwind uwtable
define hidden zeroext i1 @Wayland_SetWindowPosition(ptr noundef %0, ptr noundef %1) #0 {
  %3 = alloca i1, align 1
  %4 = alloca ptr, align 8
  %5 = alloca ptr, align 8
  %6 = alloca ptr, align 8
  %7 = alloca i32, align 4
  %8 = alloca ptr, align 8
  %9 = alloca ptr, align 8
  store ptr %0, ptr %4, align 8
  store ptr %1, ptr %5, align 8
  call void @llvm.lifetime.start.p0(i64 8, ptr %6) #10
  %10 = load ptr, ptr %5, align 8
  %11 = getelementptr inbounds nuw %struct.SDL_Window, ptr %10, i32 0, i32 59
  %12 = load ptr, ptr %11, align 8
  store ptr %12, ptr %6, align 8
  %13 = load ptr, ptr %6, align 8
  %14 = getelementptr inbounds nuw %struct.SDL_WindowData, ptr %13, i32 0, i32 8
  %15 = load i32, ptr %14, align 8
  %16 = icmp eq i32 %15, 2
  br i1 %16, label %17, label %36

17:                                               ; preds = %2
  %18 = load ptr, ptr %6, align 8
  %19 = getelementptr inbounds nuw %struct.SDL_WindowData, ptr %18, i32 0, i32 7
  %20 = getelementptr inbounds nuw %struct.anon, ptr %19, i32 0, i32 1
  %21 = getelementptr inbounds nuw %struct.anon.2, ptr %20, i32 0, i32 0
  %22 = load ptr, ptr %21, align 8
  %23 = icmp ne ptr %22, null
  br i1 %23, label %24, label %34

24:                                               ; preds = %17
  %25 = load ptr, ptr %6, align 8
  %26 = getelementptr inbounds nuw %struct.SDL_WindowData, ptr %25, i32 0, i32 7
  %27 = getelementptr inbounds nuw %struct.anon, ptr %26, i32 0, i32 1
  %28 = getelementptr inbounds nuw %struct.anon.2, ptr %27, i32 0, i32 0
  %29 = load ptr, ptr %28, align 8
  %30 = call i32 @xdg_popup_get_version(ptr noundef %29)
  %31 = icmp ult i32 %30, 3
  br i1 %31, label %32, label %34

32:                                               ; preds = %24
  %33 = call zeroext i1 (ptr, ...) @SDL_SetError_REAL(ptr noundef @.str.17)
  store i1 %33, ptr %3, align 1
  store i32 1, ptr %7, align 4
  br label %81

34:                                               ; preds = %24, %17
  %35 = load ptr, ptr %5, align 8
  call void @RepositionPopup(ptr noundef %35, i1 noundef zeroext false)
  store i1 true, ptr %3, align 1
  store i32 1, ptr %7, align 4
  br label %81

36:                                               ; preds = %2
  %37 = load ptr, ptr %6, align 8
  %38 = getelementptr inbounds nuw %struct.SDL_WindowData, ptr %37, i32 0, i32 8
  %39 = load i32, ptr %38, align 8
  %40 = icmp eq i32 %39, 3
  br i1 %40, label %46, label %41

41:                                               ; preds = %36
  %42 = load ptr, ptr %6, align 8
  %43 = getelementptr inbounds nuw %struct.SDL_WindowData, ptr %42, i32 0, i32 8
  %44 = load i32, ptr %43, align 8
  %45 = icmp eq i32 %44, 1
  br i1 %45, label %46, label %78

46:                                               ; preds = %41, %36
  %47 = load ptr, ptr %5, align 8
  call void @FlushPendingEvents(ptr noundef %47)
  %48 = load ptr, ptr %6, align 8
  %49 = getelementptr inbounds nuw %struct.SDL_WindowData, ptr %48, i32 0, i32 54
  %50 = load i8, ptr %49, align 1, !range !5, !noundef !6
  %51 = trunc i8 %50 to i1
  br i1 %51, label %52, label %77

52:                                               ; preds = %46
  call void @llvm.lifetime.start.p0(i64 8, ptr %8) #10
  %53 = load ptr, ptr %5, align 8
  %54 = call ptr @SDL_GetVideoDisplayForFullscreenWindow(ptr noundef %53)
  store ptr %54, ptr %8, align 8
  %55 = load ptr, ptr %8, align 8
  %56 = icmp ne ptr %55, null
  br i1 %56, label %57, label %73

57:                                               ; preds = %52
  %58 = load ptr, ptr %6, align 8
  %59 = getelementptr inbounds nuw %struct.SDL_WindowData, ptr %58, i32 0, i32 43
  %60 = load i32, ptr %59, align 4
  %61 = load ptr, ptr %8, align 8
  %62 = getelementptr inbounds nuw %struct.SDL_VideoDisplay, ptr %61, i32 0, i32 0
  %63 = load i32, ptr %62, align 8
  %64 = icmp ne i32 %60, %63
  br i1 %64, label %65, label %73

65:                                               ; preds = %57
  call void @llvm.lifetime.start.p0(i64 8, ptr %9) #10
  %66 = load ptr, ptr %8, align 8
  %67 = getelementptr inbounds nuw %struct.SDL_VideoDisplay, ptr %66, i32 0, i32 15
  %68 = load ptr, ptr %67, align 8
  %69 = getelementptr inbounds nuw %struct.SDL_DisplayData, ptr %68, i32 0, i32 1
  %70 = load ptr, ptr %69, align 8
  store ptr %70, ptr %9, align 8
  %71 = load ptr, ptr %5, align 8
  %72 = load ptr, ptr %9, align 8
  call void @SetFullscreen(ptr noundef %71, ptr noundef %72)
  store i1 true, ptr %3, align 1
  store i32 1, ptr %7, align 4
  call void @llvm.lifetime.end.p0(i64 8, ptr %9) #10
  br label %74

73:                                               ; preds = %57, %52
  store i32 0, ptr %7, align 4
  br label %74

74:                                               ; preds = %73, %65
  call void @llvm.lifetime.end.p0(i64 8, ptr %8) #10
  %75 = load i32, ptr %7, align 4
  switch i32 %75, label %81 [
    i32 0, label %76
  ]

76:                                               ; preds = %74
  br label %77

77:                                               ; preds = %76, %46
  br label %78

78:                                               ; preds = %77, %41
  br label %79

79:                                               ; preds = %78
  %80 = call zeroext i1 (ptr, ...) @SDL_SetError_REAL(ptr noundef @.str.18)
  store i1 %80, ptr %3, align 1
  store i32 1, ptr %7, align 4
  br label %81

81:                                               ; preds = %79, %74, %34, %32
  call void @llvm.lifetime.end.p0(i64 8, ptr %6) #10
  %82 = load i1, ptr %3, align 1
  ret i1 %82
}