; Function Attrs: nounwind uwtable
define hidden zeroext i1 @Wayland_SetWindowPosition(ptr noundef readnone captures(none) %0, ptr noundef %1) local_unnamed_addr #0 {
  %3 = getelementptr inbounds nuw i8, ptr %1, i64 392
  %4 = load ptr, ptr %3, align 8
  %5 = getelementptr inbounds nuw i8, ptr %4, i64 88
  %6 = load i32, ptr %5, align 8
  switch i32 %6, label %48 [
    i32 2, label %7
    i32 3, label %17
    i32 1, label %17
  ]

7:                                                ; preds = %2
  %8 = getelementptr inbounds nuw i8, ptr %4, i64 64
  %9 = load ptr, ptr %8, align 8
  %.not22 = icmp eq ptr %9, null
  br i1 %.not22, label %16, label %10

10:                                               ; preds = %7
  %11 = load ptr, ptr @WAYLAND_wl_proxy_get_version, align 8
  %12 = tail call i32 %11(ptr noundef nonnull %9) #15
  %13 = icmp ult i32 %12, 3
  br i1 %13, label %14, label %16

14:                                               ; preds = %10
  %15 = tail call zeroext i1 (ptr, ...) @SDL_SetError_REAL(ptr noundef nonnull @.str.17) #15
  br label %50

16:                                               ; preds = %10, %7
  tail call fastcc void @RepositionPopup(ptr noundef nonnull %1, i1 noundef zeroext false)
  br label %50

17:                                               ; preds = %2, %2
  %18 = getelementptr inbounds nuw i8, ptr %1, i64 267
  %19 = load i8, ptr %18, align 1, !range !5, !noundef !6
  %20 = getelementptr inbounds nuw i8, ptr %1, i64 268
  %21 = load i8, ptr %20, align 4, !range !5, !noundef !6
  br label %22

22:                                               ; preds = %.critedge.i, %17
  %23 = phi ptr [ %.pre, %.critedge.i ], [ %4, %17 ]
  %24 = getelementptr inbounds nuw i8, ptr %23, i64 368
  %25 = load i32, ptr %24, align 8
  %.not.i = icmp eq i32 %25, 0
  br i1 %.not.i, label %26, label %.critedge.i

26:                                               ; preds = %22
  %27 = getelementptr inbounds nuw i8, ptr %23, i64 372
  %28 = load i32, ptr %27, align 4
  %.not8.i = icmp eq i32 %28, 0
  br i1 %.not8.i, label %FlushPendingEvents.exit, label %.critedge.i

.critedge.i:                                      ; preds = %26, %22
  %29 = load ptr, ptr @WAYLAND_wl_display_roundtrip, align 8
  %30 = getelementptr inbounds nuw i8, ptr %23, i64 8
  %31 = load ptr, ptr %30, align 8
  %32 = getelementptr inbounds nuw i8, ptr %31, i64 8
  %33 = load ptr, ptr %32, align 8
  %34 = tail call i32 %29(ptr noundef %33) #15
  %.pre = load ptr, ptr %3, align 8
  br label %22, !llvm.loop !11

FlushPendingEvents.exit:                          ; preds = %26
  store i8 %19, ptr %18, align 1
  store i8 %21, ptr %20, align 4
  %35 = getelementptr inbounds nuw i8, ptr %4, i64 397
  %36 = load i8, ptr %35, align 1, !range !5, !noundef !6
  %37 = trunc nuw i8 %36 to i1
  br i1 %37, label %38, label %48

38:                                               ; preds = %FlushPendingEvents.exit
  %39 = tail call ptr @SDL_GetVideoDisplayForFullscreenWindow(ptr noundef nonnull %1) #15
  %.not = icmp eq ptr %39, null
  br i1 %.not, label %48, label %40

40:                                               ; preds = %38
  %41 = getelementptr inbounds nuw i8, ptr %4, i64 364
  %42 = load i32, ptr %41, align 4
  %43 = load i32, ptr %39, align 8
  %.not21 = icmp eq i32 %42, %43
  br i1 %.not21, label %48, label %.critedge

.critedge:                                        ; preds = %40
  %44 = getelementptr inbounds nuw i8, ptr %39, i64 128
  %45 = load ptr, ptr %44, align 8
  %46 = getelementptr inbounds nuw i8, ptr %45, i64 8
  %47 = load ptr, ptr %46, align 8
  tail call fastcc void @SetFullscreen(ptr noundef nonnull %1, ptr noundef %47)
  br label %50

48:                                               ; preds = %40, %38, %2, %FlushPendingEvents.exit
  %49 = tail call zeroext i1 (ptr, ...) @SDL_SetError_REAL(ptr noundef nonnull @.str.18) #15
  br label %50

50:                                               ; preds = %.critedge, %48, %16, %14
  %.0 = phi i1 [ %15, %14 ], [ true, %16 ], [ %49, %48 ], [ true, %.critedge ]
  ret i1 %.0
}